target datalayout = "e-m:e-p270:32:32-p271:32:32-p272:64:64-i64:64-i128:128-f80:128-n8:16:32:64-S128"
target triple = "x86_64-pc-linux-gnu"

%"class.std::__cxx11::basic_string" = type { %"struct.std::__cxx11::basic_string<char>::_Alloc_hider", i64, %union.anon }
%"struct.std::__cxx11::basic_string<char>::_Alloc_hider" = type { ptr }
%union.anon = type { i64, [8 x i8] }
%"class.google::protobuf::io::CodedOutputStream" = type { %"class.google::protobuf::io::EpsCopyOutputStream", ptr, i64 }
%"class.google::protobuf::io::EpsCopyOutputStream" = type <{ ptr, ptr, [32 x i8], ptr, i8, i8, i8, [5 x i8] }>
%"class.google::protobuf::internal::LogMessage" = type { i32, ptr, i32, %"class.std::__cxx11::basic_string" }
%"class.google::protobuf::internal::LogFinisher" = type { i8 }

@.str = private unnamed_addr constant [46 x i8] c"third_party/protobuf-lite/wire_format_lite.cc\00", align 1
@.str.1 = private unnamed_addr constant [46 x i8] c"CHECK failed: (value.size()) <= (kint32max): \00", align 1

; Function Attrs: mustprogress uwtable
define linkonce_odr noundef ptr @_ZN6google8protobuf2io19EpsCopyOutputStream8WriteRawEPKviPh(ptr noundef nonnull align 8 dereferenceable(59) %0, ptr noundef %1, i32 noundef %2, ptr noundef %3) #4 comdat align 2 {
  %5 = alloca ptr, align 8
  %6 = alloca ptr, align 8
  %7 = alloca ptr, align 8
  %8 = alloca i32, align 4
  %9 = alloca ptr, align 8
  store ptr %0, ptr %6, align 8
  store ptr %1, ptr %7, align 8
  store i32 %2, ptr %8, align 4
  store ptr %3, ptr %9, align 8
  %10 = load ptr, ptr %6, align 8
  %11 = getelementptr inbounds %"class.google::protobuf::io::EpsCopyOutputStream", ptr %10, i32 0, i32 0
  %12 = load ptr, ptr %11, align 8
  %13 = load ptr, ptr %9, align 8
  %14 = ptrtoint ptr %12 to i64
  %15 = ptrtoint ptr %13 to i64
  %16 = sub i64 %14, %15
  %17 = load i32, ptr %8, align 4
  %18 = sext i32 %17 to i64
  %19 = icmp slt i64 %16, %18
  br i1 %19, label %20, label %25

20:                                               ; preds = %4
  %21 = load ptr, ptr %7, align 8
  %22 = load i32, ptr %8, align 4
  %23 = load ptr, ptr %9, align 8
  %24 = call noundef ptr @_ZN6google8protobuf2io19EpsCopyOutputStream16WriteRawFallbackEPKviPh(ptr noundef nonnull align 8 dereferenceable(59) %10, ptr noundef %21, i32 noundef %22, ptr noundef %23)
  store ptr %24, ptr %5, align 8
  br label %34

25:                                               ; preds = %4
  %26 = load ptr, ptr %9, align 8
  %27 = load ptr, ptr %7, align 8
  %28 = load i32, ptr %8, align 4
  %29 = sext i32 %28 to i64
  call void @llvm.memcpy.p0.p0.i64(ptr align 1 %26, ptr align 1 %27, i64 %29, i1 false)
  %30 = load ptr, ptr %9, align 8
  %31 = load i32, ptr %8, align 4
  %32 = sext i32 %31 to i64
  %33 = getelementptr inbounds i8, ptr %30, i64 %32
  store ptr %33, ptr %5, align 8
  br label %34

34:                                               ; preds = %25, %20
  %35 = load ptr, ptr %5, align 8
  ret ptr %35
}

; Function Attrs: mustprogress uwtable
define linkonce_odr void @_ZN6google8protobuf2io17CodedOutputStream8WriteRawEPKvi(ptr noundef nonnull align 8 dereferenceable(80) %0, ptr noundef %1, i32 noundef %2) #4 comdat align 2 {
  %4 = alloca ptr, align 8
  %5 = alloca ptr, align 8
  %6 = alloca i32, align 4
  store ptr %0, ptr %4, align 8
  store ptr %1, ptr %5, align 8
  store i32 %2, ptr %6, align 4
  %7 = load ptr, ptr %4, align 8
  %8 = getelementptr inbounds %"class.google::protobuf::io::CodedOutputStream", ptr %7, i32 0, i32 0
  %9 = load ptr, ptr %5, align 8
  %10 = load i32, ptr %6, align 4
  %11 = getelementptr inbounds %"class.google::protobuf::io::CodedOutputStream", ptr %7, i32 0, i32 1
  %12 = load ptr, ptr %11, align 8
  %13 = call noundef ptr @_ZN6google8protobuf2io19EpsCopyOutputStream8WriteRawEPKviPh(ptr noundef nonnull align 8 dereferenceable(59) %8, ptr noundef %9, i32 noundef %10, ptr noundef %12)
  %14 = getelementptr inbounds %"class.google::protobuf::io::CodedOutputStream", ptr %7, i32 0, i32 1
  store ptr %13, ptr %14, align 8
  ret void
}

; Function Attrs: mustprogress nounwind uwtable
define linkonce_odr void @_ZN6google8protobuf2io17CodedOutputStream6SetCurEPh(ptr noundef nonnull align 8 dereferenceable(80) %0, ptr noundef %1) #5 comdat align 2 {
  %3 = alloca ptr, align 8
  %4 = alloca ptr, align 8
  store ptr %0, ptr %3, align 8
  store ptr %1, ptr %4, align 8
  %5 = load ptr, ptr %3, align 8
  %6 = load ptr, ptr %4, align 8
  %7 = getelementptr inbounds %"class.google::protobuf::io::CodedOutputStream", ptr %5, i32 0, i32 1
  store ptr %6, ptr %7, align 8
  ret void
}

; Function Attrs: mustprogress uwtable
define linkonce_odr noundef ptr @_ZN6google8protobuf2io17CodedOutputStream20WriteVarint32ToArrayEjPh(i32 noundef %0, ptr noundef %1) #4 comdat align 2 {
  %3 = alloca ptr, align 8
  %4 = alloca i32, align 4
  %5 = alloca ptr, align 8
  %6 = alloca i32, align 4
  %7 = alloca ptr, align 8
  store i32 %0, ptr %6, align 4
  store ptr %1, ptr %7, align 8
  %8 = load i32, ptr %6, align 4
  %9 = load ptr, ptr %7, align 8
  store i32 %8, ptr %4, align 4
  store ptr %9, ptr %5, align 8
  %10 = load i32, ptr %4, align 4
  %11 = icmp ult i32 %10, 128
  br i1 %11, label %12, label %18

12:                                               ; preds = %2
  %13 = load i32, ptr %4, align 4
  %14 = trunc i32 %13 to i8
  %15 = load ptr, ptr %5, align 8
  store i8 %14, ptr %15, align 1
  %16 = load ptr, ptr %5, align 8
  %17 = getelementptr inbounds i8, ptr %16, i64 1
  store ptr %17, ptr %3, align 8
  br label %54

18:                                               ; preds = %2
  %19 = load i32, ptr %4, align 4
  %20 = or i32 %19, 128
  %21 = trunc i32 %20 to i8
  %22 = load ptr, ptr %5, align 8
  store i8 %21, ptr %22, align 1
  %23 = load i32, ptr %4, align 4
  %24 = lshr i32 %23, 7
  store i32 %24, ptr %4, align 4
  %25 = load i32, ptr %4, align 4
  %26 = icmp ult i32 %25, 128
  br i1 %26, label %27, label %34

27:                                               ; preds = %18
  %28 = load i32, ptr %4, align 4
  %29 = trunc i32 %28 to i8
  %30 = load ptr, ptr %5, align 8
  %31 = getelementptr inbounds i8, ptr %30, i64 1
  store i8 %29, ptr %31, align 1
  %32 = load ptr, ptr %5, align 8
  %33 = getelementptr inbounds i8, ptr %32, i64 2
  store ptr %33, ptr %3, align 8
  br label %54

34:                                               ; preds = %18
  %35 = load ptr, ptr %5, align 8
  %36 = getelementptr inbounds i8, ptr %35, i32 1
  store ptr %36, ptr %5, align 8
  br label %37

37:                                               ; preds = %37, %34
  %38 = load i32, ptr %4, align 4
  %39 = or i32 %38, 128
  %40 = trunc i32 %39 to i8
  %41 = load ptr, ptr %5, align 8
  store i8 %40, ptr %41, align 1
  %42 = load i32, ptr %4, align 4
  %43 = lshr i32 %42, 7
  store i32 %43, ptr %4, align 4
  %44 = load ptr, ptr %5, align 8
  %45 = getelementptr inbounds i8, ptr %44, i32 1
  store ptr %45, ptr %5, align 8
  %46 = load i32, ptr %4, align 4
  %47 = icmp uge i32 %46, 128
  br i1 %47, label %37, label %48, !llvm.loop !14

48:                                               ; preds = %37
  %49 = load i32, ptr %4, align 4
  %50 = trunc i32 %49 to i8
  %51 = load ptr, ptr %5, align 8
  %52 = getelementptr inbounds i8, ptr %51, i32 1
  store ptr %52, ptr %5, align 8
  store i8 %50, ptr %51, align 1
  %53 = load ptr, ptr %5, align 8
  store ptr %53, ptr %3, align 8
  br label %54

54:                                               ; preds = %48, %27, %12
  %55 = load ptr, ptr %3, align 8
  ret ptr %55
}

; Function Attrs: mustprogress nounwind uwtable
define linkonce_odr noundef ptr @_ZNK6google8protobuf2io17CodedOutputStream3CurEv(ptr noundef nonnull align 8 dereferenceable(80) %0) #5 comdat align 2 {
  %2 = alloca ptr, align 8
  store ptr %0, ptr %2, align 8
  %3 = load ptr, ptr %2, align 8
  %4 = getelementptr inbounds %"class.google::protobuf::io::CodedOutputStream", ptr %3, i32 0, i32 1
  %5 = load ptr, ptr %4, align 8
  ret ptr %5
}

; Function Attrs: mustprogress uwtable
define linkonce_odr noundef ptr @_ZN6google8protobuf2io19EpsCopyOutputStream11EnsureSpaceEPh(ptr noundef nonnull align 8 dereferenceable(59) %0, ptr noundef %1) #4 comdat align 2 {
  %3 = alloca ptr, align 8
  %4 = alloca ptr, align 8
  %5 = alloca ptr, align 8
  store ptr %0, ptr %4, align 8
  store ptr %1, ptr %5, align 8
  %6 = load ptr, ptr %4, align 8
  %7 = load ptr, ptr %5, align 8
  %8 = getelementptr inbounds %"class.google::protobuf::io::EpsCopyOutputStream", ptr %6, i32 0, i32 0
  %9 = load ptr, ptr %8, align 8
  %10 = icmp uge ptr %7, %9
  br i1 %10, label %11, label %14

11:                                               ; preds = %2
  %12 = load ptr, ptr %5, align 8
  %13 = call noundef ptr @_ZN6google8protobuf2io19EpsCopyOutputStream19EnsureSpaceFallbackEPh(ptr noundef nonnull align 8 dereferenceable(59) %6, ptr noundef %12)
  store ptr %13, ptr %3, align 8
  br label %16

14:                                               ; preds = %2
  %15 = load ptr, ptr %5, align 8
  store ptr %15, ptr %3, align 8
  br label %16

16:                                               ; preds = %14, %11
  %17 = load ptr, ptr %3, align 8
  ret ptr %17
}

; Function Attrs: mustprogress uwtable
define linkonce_odr void @_ZN6google8protobuf2io17CodedOutputStream11WriteStringERKNSt7__cxx1112basic_stringIcSt11char_traitsIcESaIcEEE(ptr noundef nonnull align 8 dereferenceable(80) %0, ptr noundef nonnull align 8 dereferenceable(32) %1) #4 comdat align 2 {
  %3 = alloca ptr, align 8
  %4 = alloca ptr, align 8
  store ptr %0, ptr %3, align 8
  store ptr %1, ptr %4, align 8
  %5 = load ptr, ptr %3, align 8
  %6 = load ptr, ptr %4, align 8
  %7 = call noundef ptr @_ZNKSt7__cxx1112basic_stringIcSt11char_traitsIcESaIcEE4dataEv(ptr noundef nonnull align 8 dereferenceable(32) %6) #3
  %8 = load ptr, ptr %4, align 8
  %9 = call noundef i64 @_ZNKSt7__cxx1112basic_stringIcSt11char_traitsIcESaIcEE4sizeEv(ptr noundef nonnull align 8 dereferenceable(32) %8) #3
  %10 = trunc i64 %9 to i32
  call void @_ZN6google8protobuf2io17CodedOutputStream8WriteRawEPKvi(ptr noundef nonnull align 8 dereferenceable(80) %5, ptr noundef %7, i32 noundef %10)
  ret void
}

; Function Attrs: mustprogress uwtable
define linkonce_odr void @_ZN6google8protobuf2io17CodedOutputStream13WriteVarint32Ej(ptr noundef nonnull align 8 dereferenceable(80) %0, i32 noundef %1) #4 comdat align 2 {
  %3 = alloca ptr, align 8
  %4 = alloca i32, align 4
  store ptr %0, ptr %3, align 8
  store i32 %1, ptr %4, align 4
  %5 = load ptr, ptr %3, align 8
  %6 = getelementptr inbounds %"class.google::protobuf::io::CodedOutputStream", ptr %5, i32 0, i32 0
  %7 = getelementptr inbounds %"class.google::protobuf::io::CodedOutputStream", ptr %5, i32 0, i32 1
  %8 = load ptr, ptr %7, align 8
  %9 = call noundef ptr @_ZN6google8protobuf2io19EpsCopyOutputStream11EnsureSpaceEPh(ptr noundef nonnull align 8 dereferenceable(59) %6, ptr noundef %8)
  %10 = getelementptr inbounds %"class.google::protobuf::io::CodedOutputStream", ptr %5, i32 0, i32 1
  store ptr %9, ptr %10, align 8
  %11 = load i32, ptr %4, align 4
  %12 = call noundef ptr @_ZNK6google8protobuf2io17CodedOutputStream3CurEv(ptr noundef nonnull align 8 dereferenceable(80) %5)
  %13 = call noundef ptr @_ZN6google8protobuf2io17CodedOutputStream20WriteVarint32ToArrayEjPh(i32 noundef %11, ptr noundef %12)
  call void @_ZN6google8protobuf2io17CodedOutputStream6SetCurEPh(ptr noundef nonnull align 8 dereferenceable(80) %5, ptr noundef %13)
  ret void
}

; Function Attrs: mustprogress uwtable
define linkonce_odr void @_ZN6google8protobuf2io17CodedOutputStream8WriteTagEj(ptr noundef nonnull align 8 dereferenceable(80) %0, i32 noundef %1) #4 comdat align 2 {
  %3 = alloca ptr, align 8
  %4 = alloca i32, align 4
  store ptr %0, ptr %3, align 8
  store i32 %1, ptr %4, align 4
  %5 = load ptr, ptr %3, align 8
  %6 = load i32, ptr %4, align 4
  call void @_ZN6google8protobuf2io17CodedOutputStream13WriteVarint32Ej(ptr noundef nonnull align 8 dereferenceable(80) %5, i32 noundef %6)
  ret void
}

; Function Attrs: mustprogress nounwind uwtable
define linkonce_odr noundef i32 @_ZN6google8protobuf8internal14WireFormatLite7MakeTagEiNS2_8WireTypeE(i32 noundef %0, i32 noundef %1) #5 comdat align 2 {
  %3 = alloca i32, align 4
  %4 = alloca i32, align 4
  store i32 %0, ptr %3, align 4
  store i32 %1, ptr %4, align 4
  %5 = load i32, ptr %3, align 4
  %6 = shl i32 %5, 3
  %7 = load i32, ptr %4, align 4
  %8 = or i32 %6, %7
  ret i32 %8
}

; Function Attrs: mustprogress uwtable
define void @_ZN6google8protobuf8internal14WireFormatLite11WriteStringEiRKNSt7__cxx1112basic_stringIcSt11char_traitsIcESaIcEEEPNS0_2io17CodedOutputStreamE(i32 noundef %0, ptr noundef nonnull align 8 dereferenceable(32) %1, ptr noundef %2) #4 align 2 personality ptr @__gxx_personality_v0 {
  %4 = alloca i32, align 4
  %5 = alloca i32, align 4
  %6 = alloca ptr, align 8
  %7 = alloca i32, align 4
  %8 = alloca ptr, align 8
  %9 = alloca ptr, align 8
  %10 = alloca %"class.google::protobuf::internal::LogMessage", align 8
  %11 = alloca i1, align 1
  %12 = alloca ptr, align 8
  %13 = alloca i32, align 4
  %14 = alloca %"class.google::protobuf::internal::LogFinisher", align 1
  store i32 %0, ptr %7, align 4
  store ptr %1, ptr %8, align 8
  store ptr %2, ptr %9, align 8
  %15 = load i32, ptr %7, align 4
  %16 = load ptr, ptr %9, align 8
  store i32 %15, ptr %4, align 4
  store i32 2, ptr %5, align 4
  store ptr %16, ptr %6, align 8
  %17 = load ptr, ptr %6, align 8
  %18 = load i32, ptr %4, align 4
  %19 = load i32, ptr %5, align 4
  %20 = call noundef i32 @_ZN6google8protobuf8internal14WireFormatLite7MakeTagEiNS2_8WireTypeE(i32 noundef %18, i32 noundef %19)
  call void @_ZN6google8protobuf2io17CodedOutputStream8WriteTagEj(ptr noundef nonnull align 8 dereferenceable(80) %17, i32 noundef %20)
  %21 = load ptr, ptr %8, align 8
  %22 = call noundef i64 @_ZNKSt7__cxx1112basic_stringIcSt11char_traitsIcESaIcEE4sizeEv(ptr noundef nonnull align 8 dereferenceable(32) %21) #3
  %23 = icmp ule i64 %22, 2147483647
  store i1 false, ptr %11, align 1
  br i1 %23, label %24, label %25

24:                                               ; preds = %3
  br label %29

25:                                               ; preds = %3
  call void @_ZN6google8protobuf8internal10LogMessageC1ENS0_8LogLevelEPKci(ptr noundef nonnull align 8 dereferenceable(56) %10, i32 noundef 3, ptr noundef @.str, i32 noundef 482)
  store i1 true, ptr %11, align 1
  %26 = invoke noundef nonnull align 8 dereferenceable(56) ptr @_ZN6google8protobuf8internal10LogMessagelsEPKc(ptr noundef nonnull align 8 dereferenceable(56) %10, ptr noundef @.str.1)
          to label %27 unwind label %39

27:                                               ; preds = %25
  invoke void @_ZN6google8protobuf8internal11LogFinisheraSERNS1_10LogMessageE(ptr noundef nonnull align 1 dereferenceable(1) %14, ptr noundef nonnull align 8 dereferenceable(56) %26)
          to label %28 unwind label %39

28:                                               ; preds = %27
  br label %29

29:                                               ; preds = %28, %24
  %30 = load i1, ptr %11, align 1
  br i1 %30, label %31, label %32

31:                                               ; preds = %29
  call void @_ZN6google8protobuf8internal10LogMessageD1Ev(ptr noundef nonnull align 8 dereferenceable(56) %10) #3
  br label %32

32:                                               ; preds = %31, %29
  %33 = load ptr, ptr %9, align 8
  %34 = load ptr, ptr %8, align 8
  %35 = call noundef i64 @_ZNKSt7__cxx1112basic_stringIcSt11char_traitsIcESaIcEE4sizeEv(ptr noundef nonnull align 8 dereferenceable(32) %34) #3
  %36 = trunc i64 %35 to i32
  call void @_ZN6google8protobuf2io17CodedOutputStream13WriteVarint32Ej(ptr noundef nonnull align 8 dereferenceable(80) %33, i32 noundef %36)
  %37 = load ptr, ptr %9, align 8
  %38 = load ptr, ptr %8, align 8
  call void @_ZN6google8protobuf2io17CodedOutputStream11WriteStringERKNSt7__cxx1112basic_stringIcSt11char_traitsIcESaIcEEE(ptr noundef nonnull align 8 dereferenceable(80) %37, ptr noundef nonnull align 8 dereferenceable(32) %38)
  ret void

39:                                               ; preds = %27, %25
  %40 = landingpad { ptr, i32 }
          cleanup
  %41 = extractvalue { ptr, i32 } %40, 0
  store ptr %41, ptr %12, align 8
  %42 = extractvalue { ptr, i32 } %40, 1
  store i32 %42, ptr %13, align 4
  %43 = load i1, ptr %11, align 1
  br i1 %43, label %44, label %45

44:                                               ; preds = %39
  call void @_ZN6google8protobuf8internal10LogMessageD1Ev(ptr noundef nonnull align 8 dereferenceable(56) %10) #3
  br label %45

45:                                               ; preds = %44, %39
  br label %46

46:                                               ; preds = %45
  %47 = load ptr, ptr %12, align 8
  %48 = load i32, ptr %13, align 4
  %49 = insertvalue { ptr, i32 } poison, ptr %47, 0
  %50 = insertvalue { ptr, i32 } %49, i32 %48, 1
  resume { ptr, i32 } %50
}